target datalayout = "e-m:e-p270:32:32-p271:32:32-p272:64:64-i64:64-i128:128-f80:128-n8:16:32:64-S128"
target triple = "x86_64-pc-linux-gnu"

%struct.ossl_qtx_iovec_st = type { ptr, i64 }

; Function Attrs: nounwind uwtable
define internal i32 @compare_iov(ptr noundef %0, i64 noundef %1, ptr noundef %2, i64 noundef %3) #0 {
  %5 = alloca i32, align 4
  %6 = alloca ptr, align 8
  %7 = alloca i64, align 8
  %8 = alloca ptr, align 8
  %9 = alloca i64, align 8
  %10 = alloca i64, align 8
  %11 = alloca i64, align 8
  %12 = alloca ptr, align 8
  %13 = alloca i32, align 4
  store ptr %0, ptr %6, align 8, !tbaa !20
  store i64 %1, ptr %7, align 8, !tbaa !11
  store ptr %2, ptr %8, align 8, !tbaa !37
  store i64 %3, ptr %9, align 8, !tbaa !11
  call void @llvm.lifetime.start.p0(i64 8, ptr %10) #5
  call void @llvm.lifetime.start.p0(i64 8, ptr %11) #5
  store i64 0, ptr %11, align 8, !tbaa !11
  call void @llvm.lifetime.start.p0(i64 8, ptr %12) #5
  %14 = load ptr, ptr %6, align 8, !tbaa !20
  store ptr %14, ptr %12, align 8, !tbaa !20
  store i64 0, ptr %10, align 8, !tbaa !11
  br label %15

15:                                               ; preds = %27, %4
  %16 = load i64, ptr %10, align 8, !tbaa !11
  %17 = load i64, ptr %9, align 8, !tbaa !11
  %18 = icmp ult i64 %16, %17
  br i1 %18, label %19, label %30

19:                                               ; preds = %15
  %20 = load ptr, ptr %8, align 8, !tbaa !37
  %21 = load i64, ptr %10, align 8, !tbaa !11
  %22 = getelementptr inbounds nuw %struct.ossl_qtx_iovec_st, ptr %20, i64 %21
  %23 = getelementptr inbounds nuw %struct.ossl_qtx_iovec_st, ptr %22, i32 0, i32 1
  %24 = load i64, ptr %23, align 8, !tbaa !25
  %25 = load i64, ptr %11, align 8, !tbaa !11
  %26 = add i64 %25, %24
  store i64 %26, ptr %11, align 8, !tbaa !11
  br label %27

27:                                               ; preds = %19
  %28 = load i64, ptr %10, align 8, !tbaa !11
  %29 = add i64 %28, 1
  store i64 %29, ptr %10, align 8, !tbaa !11
  br label %15, !llvm.loop !39

30:                                               ; preds = %15
  %31 = load i64, ptr %7, align 8, !tbaa !11
  %32 = load i64, ptr %11, align 8, !tbaa !11
  %33 = icmp ne i64 %31, %32
  br i1 %33, label %34, label %35

34:                                               ; preds = %30
  store i32 0, ptr %5, align 4
  store i32 1, ptr %13, align 4
  br label %67

35:                                               ; preds = %30
  store i64 0, ptr %10, align 8, !tbaa !11
  br label %36

36:                                               ; preds = %63, %35
  %37 = load i64, ptr %10, align 8, !tbaa !11
  %38 = load i64, ptr %9, align 8, !tbaa !11
  %39 = icmp ult i64 %37, %38
  br i1 %39, label %40, label %66

40:                                               ; preds = %36
  %41 = load ptr, ptr %12, align 8, !tbaa !20
  %42 = load ptr, ptr %8, align 8, !tbaa !37
  %43 = load i64, ptr %10, align 8, !tbaa !11
  %44 = getelementptr inbounds nuw %struct.ossl_qtx_iovec_st, ptr %42, i64 %43
  %45 = getelementptr inbounds nuw %struct.ossl_qtx_iovec_st, ptr %44, i32 0, i32 0
  %46 = load ptr, ptr %45, align 8, !tbaa !27
  %47 = load ptr, ptr %8, align 8, !tbaa !37
  %48 = load i64, ptr %10, align 8, !tbaa !11
  %49 = getelementptr inbounds nuw %struct.ossl_qtx_iovec_st, ptr %47, i64 %48
  %50 = getelementptr inbounds nuw %struct.ossl_qtx_iovec_st, ptr %49, i32 0, i32 1
  %51 = load i64, ptr %50, align 8, !tbaa !25
  %52 = call i32 @memcmp(ptr noundef %41, ptr noundef %46, i64 noundef %51) #6
  %53 = icmp ne i32 %52, 0
  br i1 %53, label %54, label %55

54:                                               ; preds = %40
  store i32 0, ptr %5, align 4
  store i32 1, ptr %13, align 4
  br label %67

55:                                               ; preds = %40
  %56 = load ptr, ptr %8, align 8, !tbaa !37
  %57 = load i64, ptr %10, align 8, !tbaa !11
  %58 = getelementptr inbounds nuw %struct.ossl_qtx_iovec_st, ptr %56, i64 %57
  %59 = getelementptr inbounds nuw %struct.ossl_qtx_iovec_st, ptr %58, i32 0, i32 1
  %60 = load i64, ptr %59, align 8, !tbaa !25
  %61 = load ptr, ptr %12, align 8, !tbaa !20
  %62 = getelementptr inbounds nuw i8, ptr %61, i64 %60
  store ptr %62, ptr %12, align 8, !tbaa !20
  br label %63

63:                                               ; preds = %55
  %64 = load i64, ptr %10, align 8, !tbaa !11
  %65 = add i64 %64, 1
  store i64 %65, ptr %10, align 8, !tbaa !11
  br label %36, !llvm.loop !40

66:                                               ; preds = %36
  store i32 1, ptr %5, align 4
  store i32 1, ptr %13, align 4
  br label %67

67:                                               ; preds = %66, %54, %34
  call void @llvm.lifetime.end.p0(i64 8, ptr %12) #5
  call void @llvm.lifetime.end.p0(i64 8, ptr %11) #5
  call void @llvm.lifetime.end.p0(i64 8, ptr %10) #5
  %68 = load i32, ptr %5, align 4
  ret i32 %68
}