; Function Attrs: nofree nounwind memory(read, inaccessiblemem: none) uwtable
define internal fastcc range(i32 0, 2) i32 @compare_iov(ptr noundef readonly captures(none) %0, i64 noundef range(i64 3, 17) %1, ptr noundef nonnull readonly captures(none) %2, i64 noundef %3) unnamed_addr #3 {
  %.not33 = icmp eq i64 %3, 0
  br i1 %.not33, label %.loopexit, label %.lr.ph

.lr.ph:                                           ; preds = %4, %.lr.ph
  %.02026 = phi i64 [ %7, %.lr.ph ], [ 0, %4 ]
  %.02125 = phi i64 [ %8, %.lr.ph ], [ 0, %4 ]
  %5 = getelementptr inbounds nuw %struct.ossl_qtx_iovec_st, ptr %2, i64 %.02125, i32 1
  %6 = load i64, ptr %5, align 8, !tbaa !21
  %7 = add i64 %6, %.02026
  %8 = add nuw i64 %.02125, 1
  %exitcond.not = icmp eq i64 %8, %3
  br i1 %exitcond.not, label %._crit_edge, label %.lr.ph, !llvm.loop !33

._crit_edge:                                      ; preds = %.lr.ph
  %.not = icmp eq i64 %1, %7
  br i1 %.not, label %.lr.ph29, label %.loopexit

.lr.ph29:                                         ; preds = %._crit_edge, %13
  %.028 = phi ptr [ %14, %13 ], [ %0, %._crit_edge ]
  %.127 = phi i64 [ %15, %13 ], [ 0, %._crit_edge ]
  %9 = getelementptr inbounds nuw %struct.ossl_qtx_iovec_st, ptr %2, i64 %.127
  %10 = load ptr, ptr %9, align 8, !tbaa !23
  %11 = getelementptr inbounds nuw i8, ptr %9, i64 8
  %12 = load i64, ptr %11, align 8, !tbaa !21
  %bcmp = tail call i32 @bcmp(ptr %.028, ptr %10, i64 %12)
  %.not24 = icmp eq i32 %bcmp, 0
  br i1 %.not24, label %13, label %.loopexit

13:                                               ; preds = %.lr.ph29
  %14 = getelementptr inbounds nuw i8, ptr %.028, i64 %12
  %15 = add nuw i64 %.127, 1
  %exitcond35.not = icmp eq i64 %15, %3
  br i1 %exitcond35.not, label %.loopexit, label %.lr.ph29, !llvm.loop !34

.loopexit:                                        ; preds = %.lr.ph29, %13, %4, %._crit_edge
  %.022 = phi i32 [ 0, %._crit_edge ], [ 0, %4 ], [ 0, %.lr.ph29 ], [ 1, %13 ]
  ret i32 %.022
}